; Function Attrs: nounwind sspstrong uwtable
define hidden void @rb_vm_ractor_blocking_cnt_inc(ptr noundef captures(none) %0, ptr noundef captures(none) %1, ptr noundef readnone captures(none) %2, i32 noundef %3) local_unnamed_addr #0 {
  %5 = getelementptr inbounds nuw i8, ptr %1, i64 424
  %6 = load i32, ptr %5, align 8, !tbaa !72
  %cond.i.i = icmp eq i32 %6, 3
  br i1 %cond.i.i, label %7, label %vm_ractor_blocking_cnt_inc.exit

7:                                                ; preds = %4
  tail call void (ptr, ...) @rb_bug(ptr noundef nonnull @.str.64) #33
  unreachable

vm_ractor_blocking_cnt_inc.exit:                  ; preds = %4
  store i32 2, ptr %5, align 8, !tbaa !72
  %8 = getelementptr inbounds nuw i8, ptr %0, i64 28
  %9 = load i32, ptr %8, align 4, !tbaa !56
  %10 = add i32 %9, 1
  store i32 %10, ptr %8, align 4, !tbaa !56
  ret void
}